target datalayout = "e-m:e-p270:32:32-p271:32:32-p272:64:64-i64:64-i128:128-f80:128-n8:16:32:64-S128"
target triple = "x86_64-pc-linux-gnu"

%struct.Vec_Int_t_ = type { i32, i32, ptr }

; Function Attrs: inlinehint nounwind uwtable
define internal i32 @Vec_IntSum(ptr noundef %0) #2 {
  %2 = alloca ptr, align 8
  %3 = alloca i32, align 4
  %4 = alloca i32, align 4
  store ptr %0, ptr %2, align 8, !tbaa !3
  call void @llvm.lifetime.start.p0(i64 4, ptr %3) #10
  call void @llvm.lifetime.start.p0(i64 4, ptr %4) #10
  store i32 0, ptr %4, align 4, !tbaa !8
  store i32 0, ptr %3, align 4, !tbaa !8
  br label %5

5:                                                ; preds = %21, %1
  %6 = load i32, ptr %3, align 4, !tbaa !8
  %7 = load ptr, ptr %2, align 8, !tbaa !3
  %8 = getelementptr inbounds nuw %struct.Vec_Int_t_, ptr %7, i32 0, i32 1
  %9 = load i32, ptr %8, align 4, !tbaa !16
  %10 = icmp slt i32 %6, %9
  br i1 %10, label %11, label %24

11:                                               ; preds = %5
  %12 = load ptr, ptr %2, align 8, !tbaa !3
  %13 = getelementptr inbounds nuw %struct.Vec_Int_t_, ptr %12, i32 0, i32 2
  %14 = load ptr, ptr %13, align 8, !tbaa !13
  %15 = load i32, ptr %3, align 4, !tbaa !8
  %16 = sext i32 %15 to i64
  %17 = getelementptr inbounds i32, ptr %14, i64 %16
  %18 = load i32, ptr %17, align 4, !tbaa !8
  %19 = load i32, ptr %4, align 4, !tbaa !8
  %20 = add nsw i32 %19, %18
  store i32 %20, ptr %4, align 4, !tbaa !8
  br label %21

21:                                               ; preds = %11
  %22 = load i32, ptr %3, align 4, !tbaa !8
  %23 = add nsw i32 %22, 1
  store i32 %23, ptr %3, align 4, !tbaa !8
  br label %5, !llvm.loop !17

24:                                               ; preds = %5
  %25 = load i32, ptr %4, align 4, !tbaa !8
  call void @llvm.lifetime.end.p0(i64 4, ptr %4) #10
  call void @llvm.lifetime.end.p0(i64 4, ptr %3) #10
  ret i32 %25
}

; Function Attrs: inlinehint nounwind uwtable
define internal i32 @Vec_IntSize(ptr noundef %0) #2 {
  %2 = alloca ptr, align 8
  store ptr %0, ptr %2, align 8, !tbaa !3
  %3 = load ptr, ptr %2, align 8, !tbaa !3
  %4 = getelementptr inbounds nuw %struct.Vec_Int_t_, ptr %3, i32 0, i32 1
  %5 = load i32, ptr %4, align 4, !tbaa !16
  ret i32 %5
}

; Function Attrs: inlinehint nounwind uwtable
define internal i32 @Vec_IntEntry(ptr noundef %0, i32 noundef %1) #2 {
  %3 = alloca ptr, align 8
  %4 = alloca i32, align 4
  store ptr %0, ptr %3, align 8, !tbaa !3
  store i32 %1, ptr %4, align 4, !tbaa !8
  %5 = load ptr, ptr %3, align 8, !tbaa !3
  %6 = getelementptr inbounds nuw %struct.Vec_Int_t_, ptr %5, i32 0, i32 2
  %7 = load ptr, ptr %6, align 8, !tbaa !13
  %8 = load i32, ptr %4, align 4, !tbaa !8
  %9 = sext i32 %8 to i64
  %10 = getelementptr inbounds i32, ptr %7, i64 %9
  %11 = load i32, ptr %10, align 4, !tbaa !8
  ret i32 %11
}

; Function Attrs: nounwind uwtable
define i32 @Sbd_CountConfigVars(ptr noundef %0, i32 noundef %1, i32 noundef %2) #0 {
  %4 = alloca ptr, align 8
  %5 = alloca i32, align 4
  %6 = alloca i32, align 4
  %7 = alloca i32, align 4
  %8 = alloca i32, align 4
  %9 = alloca i32, align 4
  %10 = alloca i32, align 4
  %11 = alloca i32, align 4
  %12 = alloca i32, align 4
  %13 = alloca i32, align 4
  store ptr %0, ptr %4, align 8, !tbaa !3
  store i32 %1, ptr %5, align 4, !tbaa !8
  store i32 %2, ptr %6, align 4, !tbaa !8
  call void @llvm.lifetime.start.p0(i64 4, ptr %7) #10
  call void @llvm.lifetime.start.p0(i64 4, ptr %8) #10
  call void @llvm.lifetime.start.p0(i64 4, ptr %9) #10
  store i32 0, ptr %9, align 4, !tbaa !8
  call void @llvm.lifetime.start.p0(i64 4, ptr %10) #10
  call void @llvm.lifetime.start.p0(i64 4, ptr %11) #10
  store i32 0, ptr %11, align 4, !tbaa !8
  call void @llvm.lifetime.start.p0(i64 4, ptr %12) #10
  call void @llvm.lifetime.start.p0(i64 4, ptr %13) #10
  %14 = load ptr, ptr %4, align 8, !tbaa !3
  %15 = call i32 @Vec_IntEntry(ptr noundef %14, i32 noundef 0)
  store i32 %15, ptr %13, align 4, !tbaa !8
  store i32 1, ptr %7, align 4, !tbaa !8
  br label %16

16:                                               ; preds = %66, %3
  %17 = load i32, ptr %7, align 4, !tbaa !8
  %18 = load ptr, ptr %4, align 8, !tbaa !3
  %19 = call i32 @Vec_IntSize(ptr noundef %18)
  %20 = icmp slt i32 %17, %19
  br i1 %20, label %21, label %25

21:                                               ; preds = %16
  %22 = load ptr, ptr %4, align 8, !tbaa !3
  %23 = load i32, ptr %7, align 4, !tbaa !8
  %24 = call i32 @Vec_IntEntry(ptr noundef %22, i32 noundef %23)
  store i32 %24, ptr %9, align 4, !tbaa !8
  br label %25

25:                                               ; preds = %21, %16
  %26 = phi i1 [ false, %16 ], [ true, %21 ]
  br i1 %26, label %27, label %69

27:                                               ; preds = %25
  %28 = load i32, ptr %6, align 4, !tbaa !8
  %29 = load i32, ptr %13, align 4, !tbaa !8
  %30 = mul nsw i32 %28, %29
  %31 = load i32, ptr %9, align 4, !tbaa !8
  %32 = icmp eq i32 %30, %31
  br i1 %32, label %33, label %35

33:                                               ; preds = %27
  %34 = load i32, ptr %9, align 4, !tbaa !8
  store i32 %34, ptr %13, align 4, !tbaa !8
  br label %66

35:                                               ; preds = %27
  %36 = load i32, ptr %5, align 4, !tbaa !8
  store i32 %36, ptr %12, align 4, !tbaa !8
  %37 = load i32, ptr %7, align 4, !tbaa !8
  store i32 %37, ptr %8, align 4, !tbaa !8
  br label %38

38:                                               ; preds = %53, %35
  %39 = load i32, ptr %8, align 4, !tbaa !8
  %40 = load ptr, ptr %4, align 8, !tbaa !3
  %41 = call i32 @Vec_IntSize(ptr noundef %40)
  %42 = icmp slt i32 %39, %41
  br i1 %42, label %43, label %47

43:                                               ; preds = %38
  %44 = load ptr, ptr %4, align 8, !tbaa !3
  %45 = load i32, ptr %8, align 4, !tbaa !8
  %46 = call i32 @Vec_IntEntry(ptr noundef %44, i32 noundef %45)
  store i32 %46, ptr %10, align 4, !tbaa !8
  br label %47

47:                                               ; preds = %43, %38
  %48 = phi i1 [ false, %38 ], [ true, %43 ]
  br i1 %48, label %49, label %56

49:                                               ; preds = %47
  %50 = load i32, ptr %10, align 4, !tbaa !8
  %51 = load i32, ptr %12, align 4, !tbaa !8
  %52 = add nsw i32 %51, %50
  store i32 %52, ptr %12, align 4, !tbaa !8
  br label %53

53:                                               ; preds = %49
  %54 = load i32, ptr %8, align 4, !tbaa !8
  %55 = add nsw i32 %54, 1
  store i32 %55, ptr %8, align 4, !tbaa !8
  br label %38, !llvm.loop !10

56:                                               ; preds = %47
  %57 = load i32, ptr %12, align 4, !tbaa !8
  %58 = load i32, ptr %6, align 4, !tbaa !8
  %59 = load i32, ptr %13, align 4, !tbaa !8
  %60 = mul nsw i32 %58, %59
  %61 = sub nsw i32 %60, 1
  %62 = mul nsw i32 %57, %61
  %63 = load i32, ptr %11, align 4, !tbaa !8
  %64 = add nsw i32 %63, %62
  store i32 %64, ptr %11, align 4, !tbaa !8
  %65 = load i32, ptr %9, align 4, !tbaa !8
  store i32 %65, ptr %13, align 4, !tbaa !8
  br label %66

66:                                               ; preds = %56, %33
  %67 = load i32, ptr %7, align 4, !tbaa !8
  %68 = add nsw i32 %67, 1
  store i32 %68, ptr %7, align 4, !tbaa !8
  br label %16, !llvm.loop !12

69:                                               ; preds = %25
  %70 = load i32, ptr %5, align 4, !tbaa !8
  %71 = load i32, ptr %6, align 4, !tbaa !8
  %72 = mul nsw i32 %70, %71
  %73 = load i32, ptr %13, align 4, !tbaa !8
  %74 = mul nsw i32 %72, %73
  %75 = load i32, ptr %11, align 4, !tbaa !8
  %76 = add nsw i32 %75, %74
  store i32 %76, ptr %11, align 4, !tbaa !8
  %77 = load ptr, ptr %4, align 8, !tbaa !3
  %78 = call i32 @Vec_IntSum(ptr noundef %77)
  %79 = load i32, ptr %5, align 4, !tbaa !8
  %80 = sub nsw i32 %79, 1
  %81 = icmp slt i32 %78, %80
  br i1 %81, label %82, label %83

82:                                               ; preds = %69
  br label %85

83:                                               ; preds = %69
  %84 = load i32, ptr %11, align 4, !tbaa !8
  br label %85

85:                                               ; preds = %83, %82
  %86 = phi i32 [ 0, %82 ], [ %84, %83 ]
  call void @llvm.lifetime.end.p0(i64 4, ptr %13) #10
  call void @llvm.lifetime.end.p0(i64 4, ptr %12) #10
  call void @llvm.lifetime.end.p0(i64 4, ptr %11) #10
  call void @llvm.lifetime.end.p0(i64 4, ptr %10) #10
  call void @llvm.lifetime.end.p0(i64 4, ptr %9) #10
  call void @llvm.lifetime.end.p0(i64 4, ptr %8) #10
  call void @llvm.lifetime.end.p0(i64 4, ptr %7) #10
  ret i32 %86
}