; Function Attrs: nofree norecurse nosync nounwind memory(read, inaccessiblemem: none) uwtable
define i32 @Sbd_CountConfigVars(ptr noundef readonly captures(none) %0, i32 noundef %1, i32 noundef %2) local_unnamed_addr #0 {
  %4 = getelementptr i8, ptr %0, i64 8
  %.val = load ptr, ptr %4, align 8, !tbaa !3
  %5 = load i32, ptr %.val, align 4, !tbaa !10
  %6 = getelementptr i8, ptr %0, i64 4
  %.val40 = load i32, ptr %6, align 4, !tbaa !11
  %7 = icmp sgt i32 %.val40, 1
  br i1 %7, label %.lr.ph48.preheader, label %.critedge

.lr.ph48.preheader:                               ; preds = %3
  %wide.trip.count58 = zext nneg i32 %.val40 to i64
  br label %.lr.ph48

.lr.ph48:                                         ; preds = %.lr.ph48.preheader, %18
  %indvars.iv = phi i64 [ 1, %.lr.ph48.preheader ], [ %indvars.iv.next, %18 ]
  %.047 = phi i32 [ %5, %.lr.ph48.preheader ], [ %9, %18 ]
  %.03346 = phi i32 [ 0, %.lr.ph48.preheader ], [ %.134, %18 ]
  %8 = getelementptr inbounds nuw i32, ptr %.val, i64 %indvars.iv
  %9 = load i32, ptr %8, align 4, !tbaa !10
  %10 = mul nsw i32 %.047, %2
  %11 = icmp eq i32 %10, %9
  br i1 %11, label %18, label %.lr.ph

.lr.ph:                                           ; preds = %.lr.ph48, %.lr.ph
  %indvars.iv54 = phi i64 [ %indvars.iv.next55, %.lr.ph ], [ %indvars.iv, %.lr.ph48 ]
  %.03243 = phi i32 [ %14, %.lr.ph ], [ %1, %.lr.ph48 ]
  %12 = getelementptr inbounds nuw i32, ptr %.val, i64 %indvars.iv54
  %13 = load i32, ptr %12, align 4, !tbaa !10
  %14 = add nsw i32 %13, %.03243
  %indvars.iv.next55 = add nuw nsw i64 %indvars.iv54, 1
  %exitcond.not = icmp eq i64 %indvars.iv.next55, %wide.trip.count58
  br i1 %exitcond.not, label %.critedge2, label %.lr.ph, !llvm.loop !12

.critedge2:                                       ; preds = %.lr.ph
  %15 = add nsw i32 %10, -1
  %16 = mul nsw i32 %14, %15
  %17 = add nsw i32 %16, %.03346
  br label %18

18:                                               ; preds = %.lr.ph48, %.critedge2
  %.134 = phi i32 [ %17, %.critedge2 ], [ %.03346, %.lr.ph48 ]
  %indvars.iv.next = add nuw nsw i64 %indvars.iv, 1
  %exitcond59.not = icmp eq i64 %indvars.iv.next, %wide.trip.count58
  br i1 %exitcond59.not, label %.critedge, label %.lr.ph48, !llvm.loop !14

.critedge:                                        ; preds = %18, %3
  %.033.lcssa = phi i32 [ 0, %3 ], [ %.134, %18 ]
  %.0.lcssa = phi i32 [ %5, %3 ], [ %9, %18 ]
  %19 = icmp sgt i32 %.val40, 0
  br i1 %19, label %.lr.ph.i, label %Vec_IntSum.exit

.lr.ph.i:                                         ; preds = %.critedge
  %wide.trip.count.i = zext nneg i32 %.val40 to i64
  br label %20

20:                                               ; preds = %20, %.lr.ph.i
  %indvars.iv.i = phi i64 [ 0, %.lr.ph.i ], [ %indvars.iv.next.i, %20 ]
  %.08.i = phi i32 [ 0, %.lr.ph.i ], [ %23, %20 ]
  %21 = getelementptr inbounds nuw i32, ptr %.val, i64 %indvars.iv.i
  %22 = load i32, ptr %21, align 4, !tbaa !10
  %23 = add nsw i32 %22, %.08.i
  %indvars.iv.next.i = add nuw nsw i64 %indvars.iv.i, 1
  %exitcond.not.i = icmp eq i64 %indvars.iv.next.i, %wide.trip.count.i
  br i1 %exitcond.not.i, label %Vec_IntSum.exit, label %20, !llvm.loop !15

Vec_IntSum.exit:                                  ; preds = %20, %.critedge
  %.0.lcssa.i = phi i32 [ 0, %.critedge ], [ %23, %20 ]
  %24 = mul nsw i32 %2, %1
  %25 = mul nsw i32 %24, %.0.lcssa
  %26 = add nsw i32 %25, %.033.lcssa
  %27 = add nsw i32 %1, -1
  %28 = icmp slt i32 %.0.lcssa.i, %27
  %29 = select i1 %28, i32 0, i32 %26
  ret i32 %29
}